; Function Attrs: nounwind sspstrong uwtable
define dso_local void @tcg_gen_brcond_i64(i32 noundef %0, ptr noundef %1, ptr noundef %2, ptr noundef %3) local_unnamed_addr #2 {
  switch i32 %0, label %18 [
    i32 1, label %5
    i32 0, label %42
  ]

5:                                                ; preds = %4
  %6 = ptrtoint ptr %3 to i64
  %7 = tail call ptr @tcg_gen_op1(i32 noundef 3, i32 noundef 0, i64 noundef %6)
  %8 = tail call align 8 ptr @llvm.threadlocal.address.p0(ptr align 8 @tcg_ctx)
  %9 = load ptr, ptr %8, align 8
  %10 = load ptr, ptr %9, align 8
  %11 = getelementptr inbounds nuw i8, ptr %10, i64 16
  %12 = getelementptr inbounds nuw i8, ptr %9, i64 8
  %13 = load ptr, ptr %12, align 8
  %14 = icmp ugt ptr %11, %13
  br i1 %14, label %15, label %17, !prof !4

15:                                               ; preds = %5
  %16 = tail call ptr @tcg_malloc_internal(ptr noundef nonnull %9, i32 noundef 16) #6
  br label %.sink.split

17:                                               ; preds = %5
  store ptr %11, ptr %9, align 8
  br label %.sink.split

18:                                               ; preds = %4
  %19 = zext i32 %0 to i64
  %20 = ptrtoint ptr %3 to i64
  %21 = tail call align 8 ptr @llvm.threadlocal.address.p0(ptr align 8 @tcg_ctx)
  %22 = load ptr, ptr %21, align 8
  %23 = ptrtoint ptr %1 to i64
  %24 = getelementptr inbounds nuw i8, ptr %22, i64 %23
  %25 = ptrtoint ptr %24 to i64
  %26 = ptrtoint ptr %2 to i64
  %27 = getelementptr inbounds nuw i8, ptr %22, i64 %26
  %28 = ptrtoint ptr %27 to i64
  %29 = tail call noundef ptr @tcg_gen_op4(i32 noundef 103, i32 noundef 1, i64 noundef %25, i64 noundef %28, i64 noundef range(i64 0, 4294967296) %19, i64 noundef %20)
  %30 = load ptr, ptr %21, align 8
  %31 = load ptr, ptr %30, align 8
  %32 = getelementptr inbounds nuw i8, ptr %31, i64 16
  %33 = getelementptr inbounds nuw i8, ptr %30, i64 8
  %34 = load ptr, ptr %33, align 8
  %35 = icmp ugt ptr %32, %34
  br i1 %35, label %36, label %38, !prof !4

36:                                               ; preds = %18
  %37 = tail call ptr @tcg_malloc_internal(ptr noundef nonnull %30, i32 noundef 16) #6
  br label %.sink.split

38:                                               ; preds = %18
  store ptr %32, ptr %30, align 8
  br label %.sink.split

.sink.split:                                      ; preds = %38, %36, %17, %15
  %.0.i.i.sink13 = phi ptr [ %16, %15 ], [ %10, %17 ], [ %37, %36 ], [ %31, %38 ]
  %.sink = phi ptr [ %7, %15 ], [ %7, %17 ], [ %29, %36 ], [ %29, %38 ]
  %39 = getelementptr inbounds nuw i8, ptr %.0.i.i.sink13, i64 8
  store ptr %.sink, ptr %39, align 8
  store ptr null, ptr %.0.i.i.sink13, align 8
  %40 = getelementptr inbounds nuw i8, ptr %3, i64 24
  %41 = load ptr, ptr %40, align 8
  store ptr %.0.i.i.sink13, ptr %41, align 8
  store ptr %.0.i.i.sink13, ptr %40, align 8
  br label %42

42:                                               ; preds = %.sink.split, %4
  ret void
}